$ fq -d asn1_ber v tc13.ber
   |00 01 02 03 04 05 06 07 08 09 0a 0b 0c 0d 0e 0f|0123456789abcdef|.{}: tc13.ber (asn1_ber) 0x0-0xa.7 (11)
   |                                               |                |  error: asn1_ber: BitBufRange: failed at position 0 (read size 12 seek pos 0): outside buffer
   |                                               |                |    github.com/wader/fq/pkg/decode.(*D).BitBufRange
   |                                               |                |      /Users/wader/src/fq/pkg/decode/decode.go:433
   |                                               |                |    github.com/wader/fq/pkg/decode.(*D).RangeFn
   |                                               |                |      /Users/wader/src/fq/pkg/decode/decode.go:685
   |                                               |                |    github.com/wader/fq/pkg/decode.(*D).LenFn
   |                                               |                |      /Users/wader/src/fq/pkg/decode/decode.go:667
   |                                               |                |    github.com/wader/fq/format/asn1.decodeASN1BERValue
   |                                               |                |      /Users/wader/src/fq/format/asn1/asn1_ber.go:174
   |                                               |                |    github.com/wader/fq/format/asn1.decodeASN1BER
   |                                               |                |      /Users/wader/src/fq/format/asn1/asn1_ber.go:322
   |                                               |                |    github.com/wader/fq/pkg/decode.decode.func1
   |                                               |                |      /Users/wader/src/fq/pkg/decode/decode.go:67
0x0|09                                             |.               |  class: "universal" (0) 0x0-0x0.1 (0.2)
0x0|09                                             |.               |  form: "primitive" (0) 0x0.2-0x0.2 (0.1)
0x0|09                                             |.               |  tag: "real" (0x9) 0x0.3-0x0.7 (0.5)
0x0|   83 00 00 07                                 | ....           |  length: 7 0x1-0x4.7 (4)
0x0|               83 04 ff ff ff fb|              |     ......|    |  unknown0: raw bits 0x5-0xa.7 (6)
