$ fq -d asn1_ber v tc15.ber
   |00 01 02 03 04 05 06 07 08 09 0a 0b 0c 0d 0e 0f|0123456789abcdef|.{}: tc15.ber (asn1_ber) 0x0-0xd.7 (14)
0x0|09                                             |.               |  class: "universal" (0) 0x0-0x0.1 (0.2)
0x0|09                                             |.               |  form: "primitive" (0) 0x0.2-0x0.2 (0.1)
0x0|09                                             |.               |  tag: "real" (0x9) 0x0.3-0x0.7 (0.5)
0x0|   0c                                          | .              |  length: 12 0x1-0x1.7 (1)
0x0|      83                                       |  .             |  binary_encoding: true 0x2-0x2 (0.1)
0x0|      83                                       |  .             |  sign: 1 (false) 0x2.1-0x2.1 (0.1)
0x0|      83                                       |  .             |  base: 2 (0) 0x2.2-0x2.3 (0.2)
0x0|      83                                       |  .             |  scale: 0 0x2.4-0x2.5 (0.2)
0x0|      83                                       |  .             |  format: 3 0x2.6-0x2.7 (0.2)
0x0|         09 7f ff ff ff ff ff ff ff fb 05|     |   ...........| |  n: 11484795286338977159707397 0x3-0xd.7 (11)
