$ fq -d asn1_ber v tc16.ber
   |00 01 02 03 04 05 06 07 08 09 0a 0b 0c 0d 0e 0f|0123456789abcdef|.{}: tc16.ber (asn1_ber) 0x0-0xd.7 (14)
0x0|09                                             |.               |  class: "universal" (0) 0x0-0x0.1 (0.2)
0x0|09                                             |.               |  form: "primitive" (0) 0x0.2-0x0.2 (0.1)
0x0|09                                             |.               |  tag: "real" (0x9) 0x0.3-0x0.7 (0.5)
0x0|   0c                                          | .              |  length: 12 0x1-0x1.7 (1)
0x0|      80                                       |  .             |  binary_encoding: true 0x2-0x2 (0.1)
0x0|      80                                       |  .             |  sign: 1 (false) 0x2.1-0x2.1 (0.1)
0x0|      80                                       |  .             |  base: 2 (0) 0x2.2-0x2.3 (0.2)
0x0|      80                                       |  .             |  scale: 0 0x2.4-0x2.5 (0.2)
0x0|      80                                       |  .             |  format: 0 0x2.6-0x2.7 (0.2)
0x0|         fb 05 05 05 05 05 05 05 05 05 05|     |   ...........| |  n: 303464085151107503815460101 0x3-0xd.7 (11)
