$ fq -d asn1_ber v tc17.ber
    |00 01 02 03 04 05 06 07 08 09 0a 0b 0c 0d 0e 0f|0123456789abcdef|.{}: tc17.ber (asn1_ber) 0x0-0x15.7 (22)
0x00|09                                             |.               |  class: "universal" (0) 0x0-0x0.1 (0.2)
0x00|09                                             |.               |  form: "primitive" (0) 0x0.2-0x0.2 (0.1)
0x00|09                                             |.               |  tag: "real" (0x9) 0x0.3-0x0.7 (0.5)
0x00|   14                                          | .              |  length: 20 0x1-0x1.7 (1)
0x00|      af                                       |  .             |  binary_encoding: true 0x2-0x2 (0.1)
0x00|      af                                       |  .             |  sign: 1 (false) 0x2.1-0x2.1 (0.1)
0x00|      af                                       |  .             |  base: 16 (2) 0x2.2-0x2.3 (0.2)
0x00|      af                                       |  .             |  scale: 3 0x2.4-0x2.5 (0.2)
0x00|      af                                       |  .             |  format: 3 0x2.6-0x2.7 (0.2)
0x00|         09 fe ff ff ff ff ff ff ff ff 05 05 05|   .............|  n: 222920339699374471168705929055919445490599173 0x3-0x15.7 (19)
0x10|05 05 05 05 05 05|                             |......|         |
