$ fq -d asn1_ber v tc24.ber
    |00 01 02 03 04 05 06 07 08 09 0a 0b 0c 0d 0e 0f|0123456789abcdef|.{}: tc24.ber (asn1_ber) 0x0-0x16.7 (23)
0x00|06                                             |.               |  class: "universal" (0) 0x0-0x0.1 (0.2)
0x00|06                                             |.               |  form: "primitive" (0) 0x0.2-0x0.2 (0.1)
0x00|06                                             |.               |  tag: "object_identifier" (0x6) 0x0.3-0x0.7 (0.5)
0x00|   15                                          | .              |  length: 21 0x1-0x1.7 (1)
    |                                               |                |  oids[0:9]: 0x2-0x16.7 (21)
0x00|      ce 60                                    |  .`            |    [0]: 10080 oid 0x2-0x3.7 (2)
0x00|            86 48                              |    .H          |    [1]: 840 oid 0x4-0x5.7 (2)
0x00|                  88 9f 4f                     |      ..O       |    [2]: 135119 oid 0x6-0x8.7 (3)
0x00|                           09                  |         .      |    [3]: 9 oid 0x9-0x9.7 (1)
0x00|                              02               |          .     |    [4]: 2 oid 0xa-0xa.7 (1)
0x00|                                 85 ee e5 4a   |           ...J |    [5]: 12301002 oid 0xb-0xe.7 (4)
0x00|                                             85|               .|    [6]: 12132323 oid 0xf-0x12.7 (4)
0x10|e4 bf 63                                       |..c             |
0x10|         8b db 2f                              |   ../          |    [7]: 191919 oid 0x13-0x15.7 (3)
0x10|                  02|                          |      .|        |    [8]: 2 oid 0x16-0x16.7 (1)
