$ fq -d asn1_ber v tc33.ber
   |00 01 02 03 04 05 06 07 08 09 0a 0b 0c 0d 0e 0f|0123456789abcdef|.{}: tc33.ber (asn1_ber) 0x0-0x3.7 (4)
   |                                               |                |  error: asn1_ber: RawLen(value): failed at position 3 (read size 0 seek pos 0): negative nBits
   |                                               |                |    github.com/wader/fq/pkg/decode.(*D).FieldScalarRawLen
   |                                               |                |      /Users/wader/src/fq/pkg/decode/decode_gen.go:789
   |                                               |                |    github.com/wader/fq/pkg/decode.(*D).FieldRawLen
   |                                               |                |      /Users/wader/src/fq/pkg/decode/decode_gen.go:802
   |                                               |                |    github.com/wader/fq/format/asn1.decodeASN1BERValue.func1
   |                                               |                |      /Users/wader/src/fq/format/asn1/asn1_ber.go:214
   |                                               |                |    github.com/wader/fq/pkg/decode.(*D).RangeFn
   |                                               |                |      /Users/wader/src/fq/pkg/decode/decode.go:691
   |                                               |                |    github.com/wader/fq/pkg/decode.(*D).LenFn
   |                                               |                |      /Users/wader/src/fq/pkg/decode/decode.go:667
   |                                               |                |    github.com/wader/fq/format/asn1.decodeASN1BERValue
   |                                               |                |      /Users/wader/src/fq/format/asn1/asn1_ber.go:174
   |                                               |                |    github.com/wader/fq/format/asn1.decodeASN1BER
   |                                               |                |      /Users/wader/src/fq/format/asn1/asn1_ber.go:322
   |                                               |                |    github.com/wader/fq/pkg/decode.decode.func1
   |                                               |                |      /Users/wader/src/fq/pkg/decode/decode.go:67
0x0|03                                             |.               |  class: "universal" (0) 0x0-0x0.1 (0.2)
0x0|03                                             |.               |  form: "primitive" (0) 0x0.2-0x0.2 (0.1)
0x0|03                                             |.               |  tag: "bit_string" (0x3) 0x0.3-0x0.7 (0.5)
0x0|   02                                          | .              |  length: 2 0x1-0x1.7 (1)
0x0|      0f 0f|                                   |  ..|           |  unknown0: raw bits 0x2-0x3.7 (2)
