$ fq -d asn1_ber v tc4.ber
   |00 01 02 03 04 05 06 07 08 09 0a 0b 0c 0d 0e 0f|0123456789abcdef|.{}: tc4.ber (asn1_ber) 0x0-0xa.7 (11)
   |                                               |                |  error: asn1_ber: error at position 0xb: length 127 reserved
   |                                               |                |    github.com/wader/fq/pkg/decode.(*D).Errorf
   |                                               |                |      /Users/wader/src/fq/pkg/decode/decode.go:266
   |                                               |                |    github.com/wader/fq/format/asn1.decodeLength
   |                                               |                |      /Users/wader/src/fq/format/asn1/asn1_ber.go:137
   |                                               |                |    github.com/wader/fq/pkg/decode.(*D).FieldUFn.func1
   |                                               |                |      /Users/wader/src/fq/pkg/decode/decode_gen.go:334
   |                                               |                |    github.com/wader/fq/pkg/decode.(*D).FieldUScalarFn.func1
   |                                               |                |      /Users/wader/src/fq/pkg/decode/decode_gen.go:325
   |                                               |                |    github.com/wader/fq/pkg/decode.(*D).TryFieldScalarFn.func1
   |                                               |                |      /Users/wader/src/fq/pkg/decode/decode.go:963
   |                                               |                |    github.com/wader/fq/pkg/decode.(*D).TryFieldValue
   |                                               |                |      /Users/wader/src/fq/pkg/decode/decode.go:939
   |                                               |                |    github.com/wader/fq/pkg/decode.(*D).TryFieldScalarFn
   |                                               |                |      /Users/wader/src/fq/pkg/decode/decode.go:962
   |                                               |                |    github.com/wader/fq/pkg/decode.(*D).FieldUScalarFn
   |                                               |                |      /Users/wader/src/fq/pkg/decode/decode_gen.go:325
   |                                               |                |    github.com/wader/fq/pkg/decode.(*D).FieldUFn
   |                                               |                |      /Users/wader/src/fq/pkg/decode/decode_gen.go:334
   |                                               |                |    github.com/wader/fq/format/asn1.decodeASN1BERValue
   |                                               |                |      /Users/wader/src/fq/format/asn1/asn1_ber.go:168
   |                                               |                |    github.com/wader/fq/format/asn1.decodeASN1BER
   |                                               |                |      /Users/wader/src/fq/format/asn1/asn1_ber.go:322
   |                                               |                |    github.com/wader/fq/pkg/decode.decode.func1
   |                                               |                |      /Users/wader/src/fq/pkg/decode/decode.go:67
0x0|9f                                             |.               |  class: "context" (2) 0x0-0x0.1 (0.2)
0x0|9f                                             |.               |  form: "primitive" (0) 0x0.2-0x0.2 (0.1)
0x0|9f ff ff ff ff ff ff ff ff 7f                  |..........      |  tag: 18446744073709551615 0x0.3-0x9.7 (9.5)
0x0|                              ff|              |          .|    |  unknown0: raw bits 0xa-0xa.7 (1)
