$ fq -d asn1_ber v tc45.ber
   |00 01 02 03 04 05 06 07 08 09 0a 0b 0c 0d 0e 0f|0123456789abcdef|.{}: tc45.ber (asn1_ber) 0x0-0x1.7 (2)
   |                                               |                |  error: asn1_ber: U16(end_marker): failed at position 2 (read size 0 seek pos 0): EOF
   |                                               |                |    github.com/wader/fq/pkg/decode.(*D).FieldScalarU16
   |                                               |                |      /Users/wader/src/fq/pkg/decode/decode_gen.go:1682
   |                                               |                |    github.com/wader/fq/pkg/decode.(*D).FieldU16
   |                                               |                |      /Users/wader/src/fq/pkg/decode/decode_gen.go:1695
   |                                               |                |    github.com/wader/fq/format/asn1.decodeASN1BERValue.func1
   |                                               |                |      /Users/wader/src/fq/format/asn1/asn1_ber.go:190
   |                                               |                |    github.com/wader/fq/pkg/decode.(*D).RangeFn
   |                                               |                |      /Users/wader/src/fq/pkg/decode/decode.go:691
   |                                               |                |    github.com/wader/fq/pkg/decode.(*D).LenFn
   |                                               |                |      /Users/wader/src/fq/pkg/decode/decode.go:667
   |                                               |                |    github.com/wader/fq/format/asn1.decodeASN1BERValue
   |                                               |                |      /Users/wader/src/fq/format/asn1/asn1_ber.go:174
   |                                               |                |    github.com/wader/fq/format/asn1.decodeASN1BER
   |                                               |                |      /Users/wader/src/fq/format/asn1/asn1_ber.go:322
   |                                               |                |    github.com/wader/fq/pkg/decode.decode.func1
   |                                               |                |      /Users/wader/src/fq/pkg/decode/decode.go:67
0x0|24                                             |$               |  class: "universal" (0) 0x0-0x0.1 (0.2)
0x0|24                                             |$               |  form: "constructed" (1) 0x0.2-0x0.2 (0.1)
0x0|24                                             |$               |  tag: "octet_string" (0x4) 0x0.3-0x0.7 (0.5)
0x0|   00|                                         | .|             |  length: "indefinite" (0) 0x1-0x1.7 (1)
