$ fq -d asn1_ber v tc47.ber
    |00 01 02 03 04 05 06 07 08 09 0a 0b 0c 0d 0e 0f|0123456789abcdef|.{}: tc47.ber (asn1_ber) 0x0-0xf.7 (16)
0x00|23                                             |#               |  class: "universal" (0) 0x0-0x0.1 (0.2)
0x00|23                                             |#               |  form: "constructed" (1) 0x0.2-0x0.2 (0.1)
0x00|23                                             |#               |  tag: "bit_string" (0x3) 0x0.3-0x0.7 (0.5)
0x00|   0e                                          | .              |  length: 14 0x1-0x1.7 (1)
    |                                               |                |  constructed[0:2]: 0x2-0x7.7 (6)
    |                                               |                |    [0]{}: object 0x2-0x5.7 (4)
0x00|      03                                       |  .             |      class: "universal" (0) 0x2-0x2.1 (0.2)
0x00|      03                                       |  .             |      form: "primitive" (0) 0x2.2-0x2.2 (0.1)
0x00|      03                                       |  .             |      tag: "bit_string" (0x3) 0x2.3-0x2.7 (0.5)
0x00|         02                                    |   .            |      length: 2 0x3-0x3.7 (1)
0x00|            00                                 |    .           |      unused_bits_count: 0 0x4-0x4.7 (1)
0x00|               01                              |     .          |      value: raw bits 0x5-0x5.7 (1)
    |                                               |                |    [1]{}: object 0x6-0x7.7 (2)
0x00|                  00                           |      .         |      class: "universal" (0) 0x6-0x6.1 (0.2)
0x00|                  00                           |      .         |      form: "primitive" (0) 0x6.2-0x6.2 (0.1)
0x00|                  00                           |      .         |      tag: "end_of_content" (0x0) 0x6.3-0x6.7 (0.5)
0x00|                     00                        |       .        |      length: "indefinite" (0) 0x7-0x7.7 (1)
0x00|                        03 02 00 01 03 02 04 0f|        ........|  unknown0: raw bits 0x8-0xf.7 (8)
 0x0|01|                                            |.|              |  value: raw bits 0x0-0x0.7 (1)
